target datalayout = "e-m:e-p270:32:32-p271:32:32-p272:64:64-i64:64-i128:128-f80:128-n8:16:32:64-S128"
target triple = "x86_64-pc-linux-gnu"

%struct.anon = type { double, double, double, double, double }

; Function Attrs: nounwind uwtable
define internal i32 @Jac(double noundef %0, ptr noundef %1, ptr noundef %2, ptr noundef %3, ptr noundef %4, ptr noundef %5, ptr noundef %6, ptr noundef %7) #0 {
  %9 = alloca double, align 8
  %10 = alloca ptr, align 8
  %11 = alloca ptr, align 8
  %12 = alloca ptr, align 8
  %13 = alloca ptr, align 8
  %14 = alloca ptr, align 8
  %15 = alloca ptr, align 8
  %16 = alloca ptr, align 8
  %17 = alloca i32, align 4
  %18 = alloca i32, align 4
  %19 = alloca i32, align 4
  %20 = alloca ptr, align 8
  %21 = alloca double, align 8
  %22 = alloca double, align 8
  %23 = alloca double, align 8
  %24 = alloca ptr, align 8
  store double %0, ptr %9, align 8, !tbaa !21
  store ptr %1, ptr %10, align 8, !tbaa !12
  store ptr %2, ptr %11, align 8, !tbaa !12
  store ptr %3, ptr %12, align 8, !tbaa !16
  store ptr %4, ptr %13, align 8, !tbaa !11
  store ptr %5, ptr %14, align 8, !tbaa !12
  store ptr %6, ptr %15, align 8, !tbaa !12
  store ptr %7, ptr %16, align 8, !tbaa !12
  call void @llvm.lifetime.start.p0(i64 4, ptr %17) #6
  call void @llvm.lifetime.start.p0(i64 4, ptr %18) #6
  call void @llvm.lifetime.start.p0(i64 4, ptr %19) #6
  call void @llvm.lifetime.start.p0(i64 8, ptr %20) #6
  call void @llvm.lifetime.start.p0(i64 8, ptr %21) #6
  call void @llvm.lifetime.start.p0(i64 8, ptr %22) #6
  call void @llvm.lifetime.start.p0(i64 8, ptr %23) #6
  call void @llvm.lifetime.start.p0(i64 8, ptr %24) #6
  %25 = load ptr, ptr %13, align 8, !tbaa !11
  store ptr %25, ptr %24, align 8, !tbaa !11
  %26 = load ptr, ptr %24, align 8, !tbaa !11
  %27 = getelementptr inbounds nuw %struct.anon, ptr %26, i32 0, i32 2
  %28 = load double, ptr %27, align 8, !tbaa !23
  store double %28, ptr %21, align 8, !tbaa !21
  %29 = load ptr, ptr %24, align 8, !tbaa !11
  %30 = getelementptr inbounds nuw %struct.anon, ptr %29, i32 0, i32 3
  %31 = load double, ptr %30, align 8, !tbaa !24
  store double %31, ptr %22, align 8, !tbaa !21
  %32 = load ptr, ptr %24, align 8, !tbaa !11
  %33 = getelementptr inbounds nuw %struct.anon, ptr %32, i32 0, i32 4
  %34 = load double, ptr %33, align 8, !tbaa !25
  store double %34, ptr %23, align 8, !tbaa !21
  store i32 1, ptr %18, align 4, !tbaa !4
  br label %35

35:                                               ; preds = %119, %8
  %36 = load i32, ptr %18, align 4, !tbaa !4
  %37 = icmp sle i32 %36, 20
  br i1 %37, label %38, label %122

38:                                               ; preds = %35
  store i32 1, ptr %17, align 4, !tbaa !4
  br label %39

39:                                               ; preds = %115, %38
  %40 = load i32, ptr %17, align 4, !tbaa !4
  %41 = icmp sle i32 %40, 40
  br i1 %41, label %42, label %118

42:                                               ; preds = %39
  %43 = load i32, ptr %18, align 4, !tbaa !4
  %44 = sub nsw i32 %43, 1
  %45 = load i32, ptr %17, align 4, !tbaa !4
  %46 = sub nsw i32 %45, 1
  %47 = mul nsw i32 %46, 20
  %48 = add nsw i32 %44, %47
  store i32 %48, ptr %19, align 4, !tbaa !4
  %49 = load ptr, ptr %12, align 8, !tbaa !16
  %50 = load i32, ptr %19, align 4, !tbaa !4
  %51 = sext i32 %50 to i64
  %52 = call ptr @SUNBandMatrix_Column(ptr noundef %49, i64 noundef %51)
  store ptr %52, ptr %20, align 8, !tbaa !34
  %53 = load double, ptr %23, align 8, !tbaa !21
  %54 = load double, ptr %21, align 8, !tbaa !21
  %55 = fadd double %53, %54
  %56 = fmul double -2.000000e+00, %55
  %57 = load ptr, ptr %20, align 8, !tbaa !34
  %58 = load i32, ptr %19, align 4, !tbaa !4
  %59 = load i32, ptr %19, align 4, !tbaa !4
  %60 = sub nsw i32 %58, %59
  %61 = sext i32 %60 to i64
  %62 = getelementptr inbounds double, ptr %57, i64 %61
  store double %56, ptr %62, align 8, !tbaa !21
  %63 = load i32, ptr %17, align 4, !tbaa !4
  %64 = icmp ne i32 %63, 1
  br i1 %64, label %65, label %76

65:                                               ; preds = %42
  %66 = load double, ptr %21, align 8, !tbaa !21
  %67 = load double, ptr %22, align 8, !tbaa !21
  %68 = fadd double %66, %67
  %69 = load ptr, ptr %20, align 8, !tbaa !34
  %70 = load i32, ptr %19, align 4, !tbaa !4
  %71 = sub nsw i32 %70, 20
  %72 = load i32, ptr %19, align 4, !tbaa !4
  %73 = sub nsw i32 %71, %72
  %74 = sext i32 %73 to i64
  %75 = getelementptr inbounds double, ptr %69, i64 %74
  store double %68, ptr %75, align 8, !tbaa !21
  br label %76

76:                                               ; preds = %65, %42
  %77 = load i32, ptr %17, align 4, !tbaa !4
  %78 = icmp ne i32 %77, 40
  br i1 %78, label %79, label %90

79:                                               ; preds = %76
  %80 = load double, ptr %21, align 8, !tbaa !21
  %81 = load double, ptr %22, align 8, !tbaa !21
  %82 = fsub double %80, %81
  %83 = load ptr, ptr %20, align 8, !tbaa !34
  %84 = load i32, ptr %19, align 4, !tbaa !4
  %85 = add nsw i32 %84, 20
  %86 = load i32, ptr %19, align 4, !tbaa !4
  %87 = sub nsw i32 %85, %86
  %88 = sext i32 %87 to i64
  %89 = getelementptr inbounds double, ptr %83, i64 %88
  store double %82, ptr %89, align 8, !tbaa !21
  br label %90

90:                                               ; preds = %79, %76
  %91 = load i32, ptr %18, align 4, !tbaa !4
  %92 = icmp ne i32 %91, 1
  br i1 %92, label %93, label %102

93:                                               ; preds = %90
  %94 = load double, ptr %23, align 8, !tbaa !21
  %95 = load ptr, ptr %20, align 8, !tbaa !34
  %96 = load i32, ptr %19, align 4, !tbaa !4
  %97 = sub nsw i32 %96, 1
  %98 = load i32, ptr %19, align 4, !tbaa !4
  %99 = sub nsw i32 %97, %98
  %100 = sext i32 %99 to i64
  %101 = getelementptr inbounds double, ptr %95, i64 %100
  store double %94, ptr %101, align 8, !tbaa !21
  br label %102

102:                                              ; preds = %93, %90
  %103 = load i32, ptr %18, align 4, !tbaa !4
  %104 = icmp ne i32 %103, 20
  br i1 %104, label %105, label %114

105:                                              ; preds = %102
  %106 = load double, ptr %23, align 8, !tbaa !21
  %107 = load ptr, ptr %20, align 8, !tbaa !34
  %108 = load i32, ptr %19, align 4, !tbaa !4
  %109 = add nsw i32 %108, 1
  %110 = load i32, ptr %19, align 4, !tbaa !4
  %111 = sub nsw i32 %109, %110
  %112 = sext i32 %111 to i64
  %113 = getelementptr inbounds double, ptr %107, i64 %112
  store double %106, ptr %113, align 8, !tbaa !21
  br label %114

114:                                              ; preds = %105, %102
  br label %115

115:                                              ; preds = %114
  %116 = load i32, ptr %17, align 4, !tbaa !4
  %117 = add nsw i32 %116, 1
  store i32 %117, ptr %17, align 4, !tbaa !4
  br label %39

118:                                              ; preds = %39
  br label %119

119:                                              ; preds = %118
  %120 = load i32, ptr %18, align 4, !tbaa !4
  %121 = add nsw i32 %120, 1
  store i32 %121, ptr %18, align 4, !tbaa !4
  br label %35

122:                                              ; preds = %35
  call void @llvm.lifetime.end.p0(i64 8, ptr %24) #6
  call void @llvm.lifetime.end.p0(i64 8, ptr %23) #6
  call void @llvm.lifetime.end.p0(i64 8, ptr %22) #6
  call void @llvm.lifetime.end.p0(i64 8, ptr %21) #6
  call void @llvm.lifetime.end.p0(i64 8, ptr %20) #6
  call void @llvm.lifetime.end.p0(i64 4, ptr %19) #6
  call void @llvm.lifetime.end.p0(i64 4, ptr %18) #6
  call void @llvm.lifetime.end.p0(i64 4, ptr %17) #6
  ret i32 0
}