; Function Attrs: nounwind uwtable
define internal noundef i32 @Jac(double %0, ptr readnone captures(none) %1, ptr readnone captures(none) %2, ptr noundef %3, ptr noundef readonly captures(none) %4, ptr readnone captures(none) %5, ptr readnone captures(none) %6, ptr readnone captures(none) %7) #0 {
  %9 = getelementptr inbounds nuw i8, ptr %4, i64 16
  %10 = load double, ptr %9, align 8, !tbaa !13
  %11 = getelementptr inbounds nuw i8, ptr %4, i64 24
  %12 = load double, ptr %11, align 8, !tbaa !14
  %13 = getelementptr inbounds nuw i8, ptr %4, i64 32
  %14 = load double, ptr %13, align 8, !tbaa !15
  %15 = fadd double %10, %14
  %16 = fmul double %15, -2.000000e+00
  %17 = fadd double %10, %12
  %18 = fsub double %10, %12
  br label %.preheader

.preheader:                                       ; preds = %8, %.split.us
  %indvars.iv59 = phi i64 [ 1, %8 ], [ %indvars.iv.next60, %.split.us ]
  %19 = add nuw nsw i64 %indvars.iv59, -21
  switch i64 %indvars.iv59, label %.preheader.split.split [
    i64 1, label %.preheader.split.us
    i64 20, label %.preheader.split.split.us
  ]

.preheader.split.us:                              ; preds = %.preheader, %25
  %indvars.iv55 = phi i64 [ %indvars.iv.next56, %25 ], [ %indvars.iv59, %.preheader ]
  %20 = mul nuw nsw i64 %indvars.iv55, 20
  %21 = add nsw i64 %19, %20
  %22 = tail call ptr @SUNBandMatrix_Column(ptr noundef %3, i64 noundef %21) #9
  store double %16, ptr %22, align 8, !tbaa !20
  %cond.us = icmp eq i64 %indvars.iv55, 1
  br i1 %cond.us, label %25, label %23

23:                                               ; preds = %.preheader.split.us
  %24 = getelementptr inbounds i8, ptr %22, i64 -160
  store double %17, ptr %24, align 8, !tbaa !20
  %.not39.us = icmp eq i64 %indvars.iv55, 40
  br i1 %.not39.us, label %.split.us.loopexit, label %25

25:                                               ; preds = %.preheader.split.us, %23
  %26 = getelementptr inbounds nuw i8, ptr %22, i64 160
  store double %18, ptr %26, align 8, !tbaa !20
  %27 = getelementptr inbounds nuw i8, ptr %22, i64 8
  store double %14, ptr %27, align 8, !tbaa !20
  %indvars.iv.next56 = add nuw nsw i64 %indvars.iv55, 1
  br label %.preheader.split.us

.preheader.split.split.us:                        ; preds = %.preheader, %33
  %indvars.iv51 = phi i64 [ %indvars.iv.next52, %33 ], [ 1, %.preheader ]
  %28 = mul nuw nsw i64 %indvars.iv51, 20
  %29 = add nsw i64 %19, %28
  %30 = tail call ptr @SUNBandMatrix_Column(ptr noundef %3, i64 noundef %29) #9
  store double %16, ptr %30, align 8, !tbaa !20
  %cond.us45 = icmp eq i64 %indvars.iv51, 1
  br i1 %cond.us45, label %33, label %31

31:                                               ; preds = %.preheader.split.split.us
  %32 = getelementptr inbounds i8, ptr %30, i64 -160
  store double %17, ptr %32, align 8, !tbaa !20
  %.not39.us46 = icmp eq i64 %indvars.iv51, 40
  br i1 %.not39.us46, label %.split.us.loopexit48, label %33

33:                                               ; preds = %.preheader.split.split.us, %31
  %34 = getelementptr inbounds nuw i8, ptr %30, i64 160
  store double %18, ptr %34, align 8, !tbaa !20
  %35 = getelementptr inbounds i8, ptr %30, i64 -8
  store double %14, ptr %35, align 8, !tbaa !20
  %indvars.iv.next52 = add nuw nsw i64 %indvars.iv51, 1
  br label %.preheader.split.split.us

.preheader.split.split:                           ; preds = %.preheader, %41
  %indvars.iv = phi i64 [ %indvars.iv.next, %41 ], [ 1, %.preheader ]
  %36 = mul nuw nsw i64 %indvars.iv, 20
  %37 = add nsw i64 %19, %36
  %38 = tail call ptr @SUNBandMatrix_Column(ptr noundef %3, i64 noundef %37) #9
  store double %16, ptr %38, align 8, !tbaa !20
  %cond = icmp eq i64 %indvars.iv, 1
  br i1 %cond, label %41, label %39

39:                                               ; preds = %.preheader.split.split
  %40 = getelementptr inbounds i8, ptr %38, i64 -160
  store double %17, ptr %40, align 8, !tbaa !20
  %.not39 = icmp eq i64 %indvars.iv, 40
  br i1 %.not39, label %.split.us.loopexit49, label %41

41:                                               ; preds = %39, %.preheader.split.split
  %42 = getelementptr inbounds nuw i8, ptr %38, i64 160
  store double %18, ptr %42, align 8, !tbaa !20
  %43 = getelementptr inbounds i8, ptr %38, i64 -8
  store double %14, ptr %43, align 8, !tbaa !20
  %44 = getelementptr inbounds nuw i8, ptr %38, i64 8
  store double %14, ptr %44, align 8, !tbaa !20
  %indvars.iv.next = add nuw nsw i64 %indvars.iv, 1
  br label %.preheader.split.split

.split.us.loopexit:                               ; preds = %23
  %45 = getelementptr inbounds nuw i8, ptr %22, i64 8
  store double %14, ptr %45, align 8, !tbaa !20
  br label %.split.us

.split.us.loopexit48:                             ; preds = %31
  %46 = getelementptr inbounds i8, ptr %30, i64 -8
  store double %14, ptr %46, align 8, !tbaa !20
  br label %.split.us

.split.us.loopexit49:                             ; preds = %39
  %47 = getelementptr inbounds i8, ptr %38, i64 -8
  store double %14, ptr %47, align 8, !tbaa !20
  %48 = getelementptr inbounds nuw i8, ptr %38, i64 8
  store double %14, ptr %48, align 8, !tbaa !20
  br label %.split.us

.split.us:                                        ; preds = %.split.us.loopexit49, %.split.us.loopexit48, %.split.us.loopexit
  %indvars.iv.next60 = add nuw nsw i64 %indvars.iv59, 1
  %exitcond62.not = icmp eq i64 %indvars.iv.next60, 21
  br i1 %exitcond62.not, label %49, label %.preheader

49:                                               ; preds = %.split.us
  ret i32 0
}